target datalayout = "e-m:e-p270:32:32-p271:32:32-p272:64:64-i64:64-i128:128-f80:128-n8:16:32:64-S128"
target triple = "x86_64-pc-linux-gnu"

%struct.string_elem = type { ptr, ptr }

@.str.194 = private unnamed_addr constant [67 x i8] c"editcap: The available encapsulation types for the \22-T\22 flag are:\0A\00", align 1

; Function Attrs: null_pointer_is_valid sspstrong uwtable
define internal void @list_encap_types(ptr noundef %0) #0 {
  %2 = alloca ptr, align 8
  %3 = alloca i32, align 4
  %4 = alloca ptr, align 8
  %5 = alloca ptr, align 8
  %6 = alloca i64, align 8
  %7 = alloca i64, align 8
  %8 = alloca ptr, align 8
  %9 = alloca ptr, align 8
  store ptr %0, ptr %2, align 8
  call void @llvm.lifetime.start.p0(i64 4, ptr %3) #14
  call void @llvm.lifetime.start.p0(i64 8, ptr %4) #14
  call void @llvm.lifetime.start.p0(i64 8, ptr %5) #14
  store ptr null, ptr %5, align 8
  call void @llvm.lifetime.start.p0(i64 8, ptr %6) #14
  %10 = call i32 @wtap_get_num_encap_types()
  %11 = sext i32 %10 to i64
  store i64 %11, ptr %6, align 8
  call void @llvm.lifetime.start.p0(i64 8, ptr %7) #14
  store i64 16, ptr %7, align 8
  call void @llvm.lifetime.start.p0(i64 8, ptr %8) #14
  %12 = load i64, ptr %7, align 8
  %13 = icmp eq i64 %12, 1
  br i1 %13, label %14, label %17

14:                                               ; preds = %1
  %15 = load i64, ptr %6, align 8
  %16 = call noalias ptr @g_malloc(i64 noundef %15) #16
  store ptr %16, ptr %8, align 8
  br label %38

17:                                               ; preds = %1
  %18 = load i64, ptr %6, align 8
  %19 = call i1 @llvm.is.constant.i64(i64 %18)
  br i1 %19, label %20, label %33

20:                                               ; preds = %17
  %21 = load i64, ptr %7, align 8
  %22 = icmp eq i64 %21, 0
  br i1 %22, label %28, label %23

23:                                               ; preds = %20
  %24 = load i64, ptr %6, align 8
  %25 = load i64, ptr %7, align 8
  %26 = udiv i64 -1, %25
  %27 = icmp ule i64 %24, %26
  br i1 %27, label %28, label %33

28:                                               ; preds = %23, %20
  %29 = load i64, ptr %6, align 8
  %30 = load i64, ptr %7, align 8
  %31 = mul i64 %29, %30
  %32 = call noalias ptr @g_malloc(i64 noundef %31) #16
  store ptr %32, ptr %8, align 8
  br label %37

33:                                               ; preds = %23, %17
  %34 = load i64, ptr %6, align 8
  %35 = load i64, ptr %7, align 8
  %36 = call noalias ptr @g_malloc_n(i64 noundef %34, i64 noundef %35) #17
  store ptr %36, ptr %8, align 8
  br label %37

37:                                               ; preds = %33, %28
  br label %38

38:                                               ; preds = %37, %14
  %39 = load ptr, ptr %8, align 8
  store ptr %39, ptr %9, align 8
  call void @llvm.lifetime.end.p0(i64 8, ptr %8) #14
  call void @llvm.lifetime.end.p0(i64 8, ptr %7) #14
  call void @llvm.lifetime.end.p0(i64 8, ptr %6) #14
  %40 = load ptr, ptr %9, align 8
  store ptr %40, ptr %4, align 8
  %41 = load ptr, ptr %2, align 8
  %42 = call i32 (ptr, i32, ptr, ...) @__fprintf_chk(ptr noundef %41, i32 noundef 2, ptr noundef @.str.194)
  store i32 0, ptr %3, align 4
  br label %43

43:                                               ; preds = %77, %38
  %44 = load i32, ptr %3, align 4
  %45 = call i32 @wtap_get_num_encap_types()
  %46 = icmp slt i32 %44, %45
  br i1 %46, label %47, label %80

47:                                               ; preds = %43
  %48 = load i32, ptr %3, align 4
  %49 = call ptr @wtap_encap_name(i32 noundef %48)
  %50 = load ptr, ptr %4, align 8
  %51 = load i32, ptr %3, align 4
  %52 = sext i32 %51 to i64
  %53 = getelementptr %struct.string_elem, ptr %50, i64 %52
  %54 = getelementptr inbounds nuw %struct.string_elem, ptr %53, i32 0, i32 0
  store ptr %49, ptr %54, align 8
  %55 = load ptr, ptr %4, align 8
  %56 = load i32, ptr %3, align 4
  %57 = sext i32 %56 to i64
  %58 = getelementptr %struct.string_elem, ptr %55, i64 %57
  %59 = getelementptr inbounds nuw %struct.string_elem, ptr %58, i32 0, i32 0
  %60 = load ptr, ptr %59, align 8
  %61 = icmp ne ptr %60, null
  br i1 %61, label %62, label %76

62:                                               ; preds = %47
  %63 = load i32, ptr %3, align 4
  %64 = call ptr @wtap_encap_description(i32 noundef %63)
  %65 = load ptr, ptr %4, align 8
  %66 = load i32, ptr %3, align 4
  %67 = sext i32 %66 to i64
  %68 = getelementptr %struct.string_elem, ptr %65, i64 %67
  %69 = getelementptr inbounds nuw %struct.string_elem, ptr %68, i32 0, i32 1
  store ptr %64, ptr %69, align 8
  %70 = load ptr, ptr %5, align 8
  %71 = load ptr, ptr %4, align 8
  %72 = load i32, ptr %3, align 4
  %73 = sext i32 %72 to i64
  %74 = getelementptr %struct.string_elem, ptr %71, i64 %73
  %75 = call ptr @g_slist_insert_sorted(ptr noundef %70, ptr noundef %74, ptr noundef @string_nat_compare)
  store ptr %75, ptr %5, align 8
  br label %76

76:                                               ; preds = %62, %47
  br label %77

77:                                               ; preds = %76
  %78 = load i32, ptr %3, align 4
  %79 = add i32 %78, 1
  store i32 %79, ptr %3, align 4
  br label %43, !llvm.loop !35

80:                                               ; preds = %43
  %81 = load ptr, ptr %5, align 8
  %82 = load ptr, ptr %2, align 8
  call void @g_slist_foreach(ptr noundef %81, ptr noundef @string_elem_print, ptr noundef %82)
  %83 = load ptr, ptr %5, align 8
  call void @g_slist_free(ptr noundef %83)
  %84 = load ptr, ptr %4, align 8
  call void @g_free(ptr noundef %84)
  call void @llvm.lifetime.end.p0(i64 8, ptr %5) #14
  call void @llvm.lifetime.end.p0(i64 8, ptr %4) #14
  call void @llvm.lifetime.end.p0(i64 4, ptr %3) #14
  ret void
}