; Function Attrs: null_pointer_is_valid sspstrong uwtable
define internal fastcc void @list_encap_types(ptr noundef %0) unnamed_addr #0 {
  %2 = tail call i32 @wtap_get_num_encap_types()
  %3 = sext i32 %2 to i64
  %4 = tail call noalias ptr @g_malloc_n(i64 noundef %3, i64 noundef 16) #24
  %5 = tail call i32 (ptr, i32, ptr, ...) @__fprintf_chk(ptr noundef %0, i32 noundef 2, ptr noundef nonnull @.str.194)
  %6 = tail call i32 @wtap_get_num_encap_types()
  %7 = icmp sgt i32 %6, 0
  br i1 %7, label %.lr.ph, label %._crit_edge

.lr.ph:                                           ; preds = %1, %15
  %indvars.iv = phi i64 [ %indvars.iv.next, %15 ], [ 0, %1 ]
  %.03031 = phi ptr [ %.1, %15 ], [ null, %1 ]
  %8 = trunc nuw nsw i64 %indvars.iv to i32
  %9 = tail call ptr @wtap_encap_name(i32 noundef %8)
  %10 = getelementptr %struct.string_elem, ptr %4, i64 %indvars.iv
  store ptr %9, ptr %10, align 8
  %.not = icmp eq ptr %9, null
  br i1 %.not, label %15, label %11

11:                                               ; preds = %.lr.ph
  %12 = tail call ptr @wtap_encap_description(i32 noundef %8)
  %13 = getelementptr inbounds nuw i8, ptr %10, i64 8
  store ptr %12, ptr %13, align 8
  %14 = tail call ptr @g_slist_insert_sorted(ptr noundef %.03031, ptr noundef %10, ptr noundef nonnull @string_nat_compare)
  br label %15

15:                                               ; preds = %.lr.ph, %11
  %.1 = phi ptr [ %14, %11 ], [ %.03031, %.lr.ph ]
  %indvars.iv.next = add nuw nsw i64 %indvars.iv, 1
  %16 = tail call i32 @wtap_get_num_encap_types()
  %17 = sext i32 %16 to i64
  %18 = icmp slt i64 %indvars.iv.next, %17
  br i1 %18, label %.lr.ph, label %._crit_edge, !llvm.loop !35

._crit_edge:                                      ; preds = %15, %1
  %.030.lcssa = phi ptr [ null, %1 ], [ %.1, %15 ]
  tail call void @g_slist_foreach(ptr noundef %.030.lcssa, ptr noundef nonnull @string_elem_print, ptr noundef %0)
  tail call void @g_slist_free(ptr noundef %.030.lcssa)
  tail call void @g_free(ptr noundef %4)
  ret void
}